Certificate:
    Data:
        Version: 3 (0x2)
        Serial Number:
            e1:19:a1:c2:24:53:73:90:14:b3:93:2b:c1:4f:22:8d
        Signature Algorithm: sha256WithRSAEncryption
        Issuer: CN=Easy-RSA CA
        Validity
            Not Before: Aug 15 02:14:42 2023 GMT
            Not After : Nov 17 02:14:42 2025 GMT
        Subject: CN=gentoo
        Subject Public Key Info:
            Public Key Algorithm: rsaEncryption
                Public-Key: (2048 bit)
                Modulus:
                    00:b1:57:da:d5:65:81:6c:1e:12:94:9a:3c:97:f5:
                    5b:70:a2:08:e9:61:29:5a:d8:85:fe:6e:5a:d4:33:
                    d2:d7:30:c8:47:d7:e1:c7:ff:f7:ab:28:83:86:75:
                    2c:94:8f:06:ca:12:29:09:24:16:fe:0a:47:ad:8c:
                    c9:16:ba:2b:e6:44:14:98:16:47:b8:83:88:6c:f8:
                    5e:28:a5:50:cb:c8:60:af:68:1f:ea:ec:b1:62:65:
                    50:95:b3:93:14:99:a1:86:3f:15:c6:04:38:d3:80:
                    bd:25:c4:b6:5e:e1:7e:90:75:16:84:97:0a:e6:ba:
                    84:28:a5:91:5d:29:5f:86:d3:70:4c:88:8f:f4:87:
                    67:63:9e:6f:1f:53:94:dc:27:c9:bb:6e:57:01:6c:
                    1a:71:76:15:4e:49:34:5a:db:ac:cc:8b:cc:a8:2f:
                    85:76:18:3d:f8:68:12:73:4b:e7:41:7a:65:85:5e:
                    b7:38:64:f2:76:8a:7b:7c:f4:72:bc:74:0e:4e:80:
                    7c:be:69:9b:39:e1:a6:81:a6:14:19:24:5e:50:1a:
                    77:a6:14:0d:f3:c6:2f:bd:e7:f9:74:91:b8:6c:f0:
                    01:a7:fd:2c:4b:a2:42:a0:b6:15:87:e9:ed:1f:5f:
                    50:13:04:c3:31:ab:d5:ff:e2:4f:1f:22:05:4c:55:
                    99:ef
                Exponent: 65537 (0x10001)
        X509v3 extensions:
            X509v3 Basic Constraints: 
                CA:FALSE
            X509v3 Subject Key Identifier: 
                A2:62:3C:FC:F1:99:BE:68:3B:35:0F:72:7B:56:69:09:E8:DC:05:71
            X509v3 Authority Key Identifier: 
                keyid:C0:59:04:2C:66:10:05:99:B3:A1:28:D5:F9:A3:0B:EC:B4:E3:66:84
                DirName:/CN=Easy-RSA CA
                serial:32:93:C4:7F:55:E2:C5:C8:7E:4B:48:89:0D:C1:3D:C2:8A:7C:CF:D9
            X509v3 Extended Key Usage: 
                TLS Web Client Authentication
            X509v3 Key Usage: 
                Digital Signature
    Signature Algorithm: sha256WithRSAEncryption
    Signature Value:
        aa:36:b0:f9:f9:76:d4:20:87:e1:af:a7:be:75:27:37:0c:07:
        6b:6a:be:af:9d:36:cf:73:fa:20:0f:56:71:12:6b:6e:1d:b6:
        74:bc:95:1e:29:a0:eb:19:ea:5f:6d:7a:9a:04:9c:6e:d4:7c:
        6e:df:91:c2:90:d7:57:b6:a4:27:1e:83:d1:e8:5c:9e:4c:43:
        8d:65:96:e0:6f:5d:b7:c9:2e:f6:9c:8c:86:2c:21:86:39:d3:
        b5:af:e6:ca:86:06:73:de:86:ed:38:94:40:72:f4:26:79:54:
        4f:9d:84:8a:0c:45:10:25:dc:c2:d3:3e:2d:44:9e:61:4e:ef:
        75:5e:7a:65:72:fe:b5:28:a7:62:b8:d0:64:36:23:ab:03:84:
        a2:7d:15:f3:33:40:d7:c1:1c:9b:f1:bd:81:2a:d9:3d:46:ad:
        55:51:2c:95:38:00:31:f3:b0:85:73:a9:fa:fe:c5:b7:15:e7:
        ff:91:af:1a:a8:c1:32:30:3c:33:be:cb:36:a5:06:a1:e5:3c:
        82:2e:37:ae:85:5a:e9:70:86:c0:92:c0:fb:b1:ae:08:ca:78:
        89:e8:3d:3b:68:3e:34:f7:e2:9c:a5:0c:a8:08:45:4c:3e:70:
        3e:89:40:3e:7e:fd:b8:d8:5f:ef:b6:84:ea:51:5f:d8:a8:98:
        e9:d6:e6:0b
-----BEGIN CERTIFICATE-----
MIIDVTCCAj2gAwIBAgIRAOEZocIkU3OQFLOTK8FPIo0wDQYJKoZIhvcNAQELBQAw
FjEUMBIGA1UEAwwLRWFzeS1SU0EgQ0EwHhcNMjMwODE1MDIxNDQyWhcNMjUxMTE3
MDIxNDQyWjARMQ8wDQYDVQQDDAZnZW50b28wggEiMA0GCSqGSIb3DQEBAQUAA4IB
DwAwggEKAoIBAQCxV9rVZYFsHhKUmjyX9VtwogjpYSla2IX+blrUM9LXMMhH1+HH
//erKIOGdSyUjwbKEikJJBb+CketjMkWuivmRBSYFke4g4hs+F4opVDLyGCvaB/q
7LFiZVCVs5MUmaGGPxXGBDjTgL0lxLZe4X6QdRaElwrmuoQopZFdKV+G03BMiI/0
h2djnm8fU5TcJ8m7blcBbBpxdhVOSTRa26zMi8yoL4V2GD34aBJzS+dBemWFXrc4
ZPJ2int89HK8dA5OgHy+aZs54aaBphQZJF5QGnemFA3zxi+95/l0kbhs8AGn/SxL
okKgthWH6e0fX1ATBMMxq9X/4k8fIgVMVZnvAgMBAAGjgaIwgZ8wCQYDVR0TBAIw
ADAdBgNVHQ4EFgQUomI8/PGZvmg7NQ9ye1ZpCejcBXEwUQYDVR0jBEowSIAUwFkE
LGYQBZmzoSjV+aML7LTjZoShGqQYMBYxFDASBgNVBAMMC0Vhc3ktUlNBIENBghQy
k8R/VeLFyH5LSIkNwT3CinzP2TATBgNVHSUEDDAKBggrBgEFBQcDAjALBgNVHQ8E
BAMCB4AwDQYJKoZIhvcNAQELBQADggEBAKo2sPn5dtQgh+Gvp751JzcMB2tqvq+d
Ns9z+iAPVnESa24dtnS8lR4poOsZ6l9tepoEnG7UfG7fkcKQ11e2pCceg9HoXJ5M
Q41lluBvXbfJLvacjIYsIYY507Wv5sqGBnPehu04lEBy9CZ5VE+dhIoMRRAl3MLT
Pi1EnmFO73VeemVy/rUop2K40GQ2I6sDhKJ9FfMzQNfBHJvxvYEq2T1GrVVRLJU4
ADHzsIVzqfr+xbcV5/+RrxqowTIwPDO+yzalBqHlPIIuN66FWulwhsCSwPuxrgjK
eInoPTtoPjT34pylDKgIRUw+cD6JQD5+/bjYX++2hOpRX9iomOnW5gs=
-----END CERTIFICATE-----
